target datalayout = "e-m:e-p270:32:32-p271:32:32-p272:64:64-i64:64-i128:128-f80:128-n8:16:32:64-S128"
target triple = "x86_64-pc-linux-gnu"

%struct.Curl_cftype = type { ptr, i32, i32, ptr, ptr, ptr, ptr, ptr, ptr, ptr, ptr, ptr, ptr, ptr, ptr, ptr }
%struct.Curl_cfilter = type { ptr, ptr, ptr, ptr, i32, i8 }
%struct.Curl_easy = type { i32, i64, i64, ptr, %struct.Curl_llist_node, %struct.Curl_llist_node, i32, i32, %struct.Curl_message, %struct.easy_pollset, %struct.Names, ptr, ptr, ptr, %struct.SingleRequest, %struct.UserDefined, ptr, ptr, %struct.Progress, %struct.UrlState, ptr, %struct.PureInfo, %struct.curl_tlssessioninfo }
%struct.Curl_llist_node = type { ptr, ptr, ptr, ptr }
%struct.Curl_message = type { %struct.Curl_llist_node, %struct.CURLMsg }
%struct.CURLMsg = type { i32, ptr, %union.anon.0 }
%union.anon.0 = type { ptr }
%struct.easy_pollset = type { [5 x i32], i32, [5 x i8] }
%struct.Names = type { ptr, i32 }
%struct.SingleRequest = type <{ i64, i64, i64, i64, %struct.curltime, i32, i32, i32, i32, i64, i32, i32, i32, i32, ptr, ptr, %struct.bufq, i64, i64, ptr, ptr, %union.anon.1, ptr, i8, i32, [3 x i8] }>
%struct.curltime = type { i64, i32 }
%struct.bufq = type { ptr, ptr, ptr, ptr, i64, i64, i64, i32 }
%union.anon.1 = type { ptr }
%struct.UserDefined = type <{ ptr, ptr, ptr, ptr, ptr, ptr, i16, [6 x i8], i64, i64, i64, ptr, ptr, i64, i16, i16, [4 x i8], ptr, ptr, ptr, ptr, ptr, ptr, ptr, ptr, ptr, ptr, ptr, ptr, ptr, ptr, ptr, ptr, ptr, ptr, ptr, ptr, ptr, ptr, ptr, i32, i32, i32, i32, i32, [4 x i8], i64, i64, i64, i64, i64, i64, i64, i64, ptr, ptr, %struct.curl_mimepart, ptr, ptr, i64, i8, i8, i8, [5 x i8], %struct.ssl_config_data, %struct.ssl_config_data, ptr, i16, i8, i8, [4 x i8], %struct.ssl_general_config, i32, i32, i32, [4 x i8], ptr, ptr, i8, [7 x i8], i64, i8, i8, i8, i8, i32, ptr, ptr, ptr, i8, i8, [2 x i8], i32, [63 x ptr], [8 x ptr], i32, i32, i32, [4 x i8], ptr, ptr, ptr, ptr, ptr, i8, [3 x i8], i32, i32, i32, i64, %struct.Curl_data_priority, ptr, ptr, i64, ptr, i64, ptr, ptr, ptr, i8, [3 x i8], i32, i8, i8, i64, [6 x i8] }>
%struct.curl_mimepart = type { ptr, ptr, i32, i32, ptr, ptr, ptr, ptr, ptr, ptr, ptr, ptr, ptr, ptr, ptr, i64, %struct.mime_state, ptr, %struct.mime_encoder_state, i64 }
%struct.mime_state = type { i32, ptr, i64 }
%struct.mime_encoder_state = type { i64, i64, i64, [256 x i8] }
%struct.ssl_config_data = type { %struct.ssl_primary_config, i64, ptr, ptr, ptr, ptr, ptr, ptr, ptr, i16 }
%struct.ssl_primary_config = type { ptr, ptr, ptr, ptr, ptr, ptr, ptr, ptr, ptr, ptr, ptr, ptr, i8, i32, i8, i8 }
%struct.ssl_general_config = type { i64, i32 }
%struct.Curl_data_priority = type { ptr, ptr, i32, i8 }
%struct.Progress = type { i64, %struct.pgrs_dir, %struct.pgrs_dir, i64, i64, i32, i32, i64, i64, i64, i64, i64, i64, i64, i64, i64, %struct.curltime, %struct.curltime, %struct.curltime, %struct.curltime, [6 x i64], [6 x %struct.curltime], i32, i8 }
%struct.pgrs_dir = type { i64, i64, i64, %struct.pgrs_measure }
%struct.pgrs_measure = type { %struct.curltime, i64 }
%struct.UrlState = type { %struct.curltime, i64, i64, %struct.dynbuf, ptr, i64, ptr, i32, i32, i32, ptr, i64, i32, i64, i32, ptr, %struct.digestdata, %struct.digestdata, %struct.auth, %struct.auth, %struct.Curl_async, ptr, %struct.curltime, %struct.Curl_tree, %struct.Curl_llist, [15 x %struct.time_node], ptr, ptr, i64, i64, %struct.Curl_data_priority, ptr, ptr, ptr, %struct.urlpieces, ptr, ptr, ptr, ptr, ptr, i64, %struct.dynbuf, %struct.Curl_llist, [2 x %struct.curl_header], ptr, i32, ptr, ptr, %struct.store_netrc, %struct.dynamically_allocated_data, i8, i8, i8, i8, i32 }
%struct.digestdata = type { ptr, ptr, ptr, ptr, ptr, ptr, i32, i8, i8 }
%struct.auth = type { i64, i64, i64, i8 }
%struct.Curl_async = type { ptr, ptr, ptr, ptr, i32, i32, i8 }
%struct.Curl_tree = type { ptr, ptr, ptr, ptr, %struct.curltime, ptr }
%struct.time_node = type { %struct.Curl_llist_node, %struct.curltime, i32 }
%struct.urlpieces = type { ptr, ptr, ptr, ptr, ptr, ptr, ptr, ptr }
%struct.dynbuf = type { ptr, i64, i64, i64 }
%struct.Curl_llist = type { ptr, ptr, ptr, i64 }
%struct.curl_header = type { ptr, ptr, i64, i64, i32, ptr }
%struct.store_netrc = type { %struct.dynbuf, ptr, i8 }
%struct.dynamically_allocated_data = type { ptr, ptr, ptr, ptr, ptr, ptr, ptr, ptr, ptr, ptr, ptr, ptr, ptr }
%struct.PureInfo = type { i32, i32, i32, i64, i64, i64, i64, i64, ptr, ptr, i64, i32, %struct.ip_quadruple, i32, ptr, i32, %struct.curl_certinfo, i32, i8 }
%struct.ip_quadruple = type { [46 x i8], [46 x i8], i32, i32 }
%struct.curl_certinfo = type { i32, ptr }
%struct.curl_tlssessioninfo = type { i32, ptr }
%struct.curl_trc_feat = type { ptr, i32 }
%struct.cf_hc_ctx = type { i32, ptr, %struct.curltime, i32, %struct.cf_hc_baller, %struct.cf_hc_baller, i32, i32 }
%struct.cf_hc_baller = type { ptr, ptr, i32, %struct.curltime, i32, i8 }

@.str.14 = private unnamed_addr constant [27 x i8] c"adjust_pollset -> %d socks\00", align 1

; Function Attrs: nounwind uwtable
define internal zeroext i1 @cf_hc_baller_is_active(ptr noundef %0) #0 {
  %2 = alloca ptr, align 8
  store ptr %0, ptr %2, align 8, !tbaa !119
  %3 = load ptr, ptr %2, align 8, !tbaa !119
  %4 = getelementptr inbounds nuw %struct.cf_hc_baller, ptr %3, i32 0, i32 5
  %5 = load i8, ptr %4, align 4
  %6 = and i8 %5, 1
  %7 = zext i8 %6 to i32
  %8 = icmp ne i32 %7, 0
  br i1 %8, label %9, label %20

9:                                                ; preds = %1
  %10 = load ptr, ptr %2, align 8, !tbaa !119
  %11 = getelementptr inbounds nuw %struct.cf_hc_baller, ptr %10, i32 0, i32 1
  %12 = load ptr, ptr %11, align 8, !tbaa !121
  %13 = icmp ne ptr %12, null
  br i1 %13, label %14, label %20

14:                                               ; preds = %9
  %15 = load ptr, ptr %2, align 8, !tbaa !119
  %16 = getelementptr inbounds nuw %struct.cf_hc_baller, ptr %15, i32 0, i32 2
  %17 = load i32, ptr %16, align 8, !tbaa !123
  %18 = icmp ne i32 %17, 0
  %19 = xor i1 %18, true
  br label %20

20:                                               ; preds = %14, %9, %1
  %21 = phi i1 [ false, %9 ], [ false, %1 ], [ %19, %14 ]
  ret i1 %21
}

; Function Attrs: nounwind uwtable
define internal void @cf_hc_adjust_pollset(ptr noundef %0, ptr noundef %1, ptr noundef %2) #0 {
  %4 = alloca ptr, align 8
  %5 = alloca ptr, align 8
  %6 = alloca ptr, align 8
  %7 = alloca ptr, align 8
  %8 = alloca [2 x ptr], align 16
  %9 = alloca i64, align 8
  %10 = alloca ptr, align 8
  %11 = alloca i32, align 4
  store ptr %0, ptr %4, align 8, !tbaa !4
  store ptr %1, ptr %5, align 8, !tbaa !9
  store ptr %2, ptr %6, align 8, !tbaa !128
  %12 = load ptr, ptr %4, align 8, !tbaa !4
  %13 = getelementptr inbounds nuw %struct.Curl_cfilter, ptr %12, i32 0, i32 5
  %14 = load i8, ptr %13, align 4
  %15 = and i8 %14, 1
  %16 = zext i8 %15 to i32
  %17 = icmp ne i32 %16, 0
  br i1 %17, label %96, label %18

18:                                               ; preds = %3
  call void @llvm.lifetime.start.p0(i64 8, ptr %7) #5
  %19 = load ptr, ptr %4, align 8, !tbaa !4
  %20 = getelementptr inbounds nuw %struct.Curl_cfilter, ptr %19, i32 0, i32 2
  %21 = load ptr, ptr %20, align 8, !tbaa !11
  store ptr %21, ptr %7, align 8, !tbaa !16
  call void @llvm.lifetime.start.p0(i64 16, ptr %8) #5
  call void @llvm.lifetime.start.p0(i64 8, ptr %9) #5
  %22 = load ptr, ptr %7, align 8, !tbaa !16
  %23 = getelementptr inbounds nuw %struct.cf_hc_ctx, ptr %22, i32 0, i32 4
  %24 = getelementptr inbounds [2 x ptr], ptr %8, i64 0, i64 0
  store ptr %23, ptr %24, align 16, !tbaa !119
  %25 = load ptr, ptr %7, align 8, !tbaa !16
  %26 = getelementptr inbounds nuw %struct.cf_hc_ctx, ptr %25, i32 0, i32 5
  %27 = getelementptr inbounds [2 x ptr], ptr %8, i64 0, i64 1
  store ptr %26, ptr %27, align 8, !tbaa !119
  store i64 0, ptr %9, align 8, !tbaa !97
  br label %28

28:                                               ; preds = %47, %18
  %29 = load i64, ptr %9, align 8, !tbaa !97
  %30 = icmp ult i64 %29, 2
  br i1 %30, label %31, label %50

31:                                               ; preds = %28
  call void @llvm.lifetime.start.p0(i64 8, ptr %10) #5
  %32 = load i64, ptr %9, align 8, !tbaa !97
  %33 = getelementptr inbounds nuw [2 x ptr], ptr %8, i64 0, i64 %32
  %34 = load ptr, ptr %33, align 8, !tbaa !119
  store ptr %34, ptr %10, align 8, !tbaa !119
  %35 = load ptr, ptr %10, align 8, !tbaa !119
  %36 = call zeroext i1 @cf_hc_baller_is_active(ptr noundef %35)
  br i1 %36, label %38, label %37

37:                                               ; preds = %31
  store i32 4, ptr %11, align 4
  br label %44

38:                                               ; preds = %31
  %39 = load ptr, ptr %10, align 8, !tbaa !119
  %40 = getelementptr inbounds nuw %struct.cf_hc_baller, ptr %39, i32 0, i32 1
  %41 = load ptr, ptr %40, align 8, !tbaa !121
  %42 = load ptr, ptr %5, align 8, !tbaa !9
  %43 = load ptr, ptr %6, align 8, !tbaa !128
  call void @Curl_conn_cf_adjust_pollset(ptr noundef %41, ptr noundef %42, ptr noundef %43)
  store i32 0, ptr %11, align 4
  br label %44

44:                                               ; preds = %38, %37
  call void @llvm.lifetime.end.p0(i64 8, ptr %10) #5
  %45 = load i32, ptr %11, align 4
  switch i32 %45, label %97 [
    i32 0, label %46
    i32 4, label %47
  ]

46:                                               ; preds = %44
  br label %47

47:                                               ; preds = %46, %44
  %48 = load i64, ptr %9, align 8, !tbaa !97
  %49 = add i64 %48, 1
  store i64 %49, ptr %9, align 8, !tbaa !97
  br label %28, !llvm.loop !130

50:                                               ; preds = %28
  br label %51

51:                                               ; preds = %50
  %52 = load ptr, ptr %5, align 8, !tbaa !9
  %53 = icmp ne ptr %52, null
  br i1 %53, label %54, label %93

54:                                               ; preds = %51
  %55 = load ptr, ptr %5, align 8, !tbaa !9
  %56 = getelementptr inbounds nuw %struct.Curl_easy, ptr %55, i32 0, i32 15
  %57 = getelementptr inbounds nuw %struct.UserDefined, ptr %56, i32 0, i32 124
  %58 = load i64, ptr %57, align 2
  %59 = lshr i64 %58, 27
  %60 = and i64 %59, 1
  %61 = trunc i64 %60 to i32
  %62 = icmp ne i32 %61, 0
  br i1 %62, label %63, label %93

63:                                               ; preds = %54
  %64 = load ptr, ptr %5, align 8, !tbaa !9
  %65 = getelementptr inbounds nuw %struct.Curl_easy, ptr %64, i32 0, i32 19
  %66 = getelementptr inbounds nuw %struct.UrlState, ptr %65, i32 0, i32 47
  %67 = load ptr, ptr %66, align 8, !tbaa !18
  %68 = icmp ne ptr %67, null
  br i1 %68, label %69, label %77

69:                                               ; preds = %63
  %70 = load ptr, ptr %5, align 8, !tbaa !9
  %71 = getelementptr inbounds nuw %struct.Curl_easy, ptr %70, i32 0, i32 19
  %72 = getelementptr inbounds nuw %struct.UrlState, ptr %71, i32 0, i32 47
  %73 = load ptr, ptr %72, align 8, !tbaa !18
  %74 = getelementptr inbounds nuw %struct.curl_trc_feat, ptr %73, i32 0, i32 1
  %75 = load i32, ptr %74, align 8, !tbaa !85
  %76 = icmp sge i32 %75, 1
  br i1 %76, label %77, label %93

77:                                               ; preds = %69, %63
  %78 = load ptr, ptr %4, align 8, !tbaa !4
  %79 = icmp ne ptr %78, null
  br i1 %79, label %80, label %93

80:                                               ; preds = %77
  %81 = load ptr, ptr %4, align 8, !tbaa !4
  %82 = getelementptr inbounds nuw %struct.Curl_cfilter, ptr %81, i32 0, i32 0
  %83 = load ptr, ptr %82, align 8, !tbaa !87
  %84 = getelementptr inbounds nuw %struct.Curl_cftype, ptr %83, i32 0, i32 2
  %85 = load i32, ptr %84, align 4, !tbaa !88
  %86 = icmp sge i32 %85, 1
  br i1 %86, label %87, label %93

87:                                               ; preds = %80
  %88 = load ptr, ptr %5, align 8, !tbaa !9
  %89 = load ptr, ptr %4, align 8, !tbaa !4
  %90 = load ptr, ptr %6, align 8, !tbaa !128
  %91 = getelementptr inbounds nuw %struct.easy_pollset, ptr %90, i32 0, i32 1
  %92 = load i32, ptr %91, align 4, !tbaa !131
  call void (ptr, ptr, ptr, ...) @Curl_trc_cf_infof(ptr noundef %88, ptr noundef %89, ptr noundef @.str.14, i32 noundef %92)
  br label %93

93:                                               ; preds = %87, %80, %77, %69, %54, %51
  br label %94

94:                                               ; preds = %93
  br label %95

95:                                               ; preds = %94
  call void @llvm.lifetime.end.p0(i64 8, ptr %9) #5
  call void @llvm.lifetime.end.p0(i64 16, ptr %8) #5
  call void @llvm.lifetime.end.p0(i64 8, ptr %7) #5
  br label %96

96:                                               ; preds = %95, %3
  ret void

97:                                               ; preds = %44
  unreachable
}