; Function Attrs: nounwind uwtable
define internal void @cf_hc_adjust_pollset(ptr noundef %0, ptr noundef %1, ptr noundef %2) #0 {
  %4 = getelementptr inbounds nuw i8, ptr %0, i64 36
  %5 = load i8, ptr %4, align 4
  %6 = and i8 %5, 1
  %.not = icmp eq i8 %6, 0
  br i1 %.not, label %7, label %45

7:                                                ; preds = %3
  %8 = getelementptr inbounds nuw i8, ptr %0, i64 16
  %9 = load ptr, ptr %8, align 8, !tbaa !4
  %10 = getelementptr inbounds nuw i8, ptr %9, i64 40
  %11 = getelementptr inbounds nuw i8, ptr %9, i64 88
  br label %12

12:                                               ; preds = %7, %cf_hc_baller_is_active.exit.thread
  %13 = phi i1 [ true, %7 ], [ false, %cf_hc_baller_is_active.exit.thread ]
  %.025.sroa.phi.sroa.speculated = phi ptr [ %10, %7 ], [ %11, %cf_hc_baller_is_active.exit.thread ]
  %14 = getelementptr inbounds nuw i8, ptr %.025.sroa.phi.sroa.speculated, i64 44
  %15 = load i8, ptr %14, align 4
  %16 = and i8 %15, 1
  %.not.i = icmp eq i8 %16, 0
  br i1 %.not.i, label %cf_hc_baller_is_active.exit.thread, label %17

17:                                               ; preds = %12
  %18 = getelementptr inbounds nuw i8, ptr %.025.sroa.phi.sroa.speculated, i64 8
  %19 = load ptr, ptr %18, align 8, !tbaa !86
  %.not3.i = icmp eq ptr %19, null
  br i1 %.not3.i, label %cf_hc_baller_is_active.exit.thread, label %cf_hc_baller_is_active.exit

cf_hc_baller_is_active.exit:                      ; preds = %17
  %20 = getelementptr inbounds nuw i8, ptr %.025.sroa.phi.sroa.speculated, i64 16
  %21 = load i32, ptr %20, align 8, !tbaa !88
  %.not4.i = icmp eq i32 %21, 0
  br i1 %.not4.i, label %22, label %cf_hc_baller_is_active.exit.thread

22:                                               ; preds = %cf_hc_baller_is_active.exit
  tail call void @Curl_conn_cf_adjust_pollset(ptr noundef nonnull %19, ptr noundef %1, ptr noundef %2) #4
  br label %cf_hc_baller_is_active.exit.thread

cf_hc_baller_is_active.exit.thread:               ; preds = %12, %17, %cf_hc_baller_is_active.exit, %22
  br i1 %13, label %12, label %23, !llvm.loop !125

23:                                               ; preds = %cf_hc_baller_is_active.exit.thread
  %.not22 = icmp eq ptr %1, null
  br i1 %.not22, label %45, label %24

24:                                               ; preds = %23
  %25 = getelementptr inbounds nuw i8, ptr %1, i64 2562
  %26 = load i64, ptr %25, align 2
  %27 = and i64 %26, 134217728
  %.not23 = icmp eq i64 %27, 0
  br i1 %.not23, label %45, label %28

28:                                               ; preds = %24
  %29 = getelementptr inbounds nuw i8, ptr %1, i64 4712
  %30 = load ptr, ptr %29, align 8, !tbaa !13
  %.not24 = icmp eq ptr %30, null
  br i1 %.not24, label %36, label %31

31:                                               ; preds = %28
  %32 = getelementptr inbounds nuw i8, ptr %30, i64 8
  %33 = load i32, ptr %32, align 8, !tbaa !81
  %34 = icmp sgt i32 %33, 0
  %35 = icmp ne ptr %0, null
  %or.cond = and i1 %35, %34
  br i1 %or.cond, label %37, label %45

36:                                               ; preds = %28
  %.old1.not = icmp eq ptr %0, null
  br i1 %.old1.not, label %45, label %37

37:                                               ; preds = %31, %36
  %38 = load ptr, ptr %0, align 8, !tbaa !83
  %39 = getelementptr inbounds nuw i8, ptr %38, i64 12
  %40 = load i32, ptr %39, align 4, !tbaa !84
  %41 = icmp sgt i32 %40, 0
  br i1 %41, label %42, label %45

42:                                               ; preds = %37
  %43 = getelementptr inbounds nuw i8, ptr %2, i64 20
  %44 = load i32, ptr %43, align 4, !tbaa !126
  tail call void (ptr, ptr, ptr, ...) @Curl_trc_cf_infof(ptr noundef nonnull %1, ptr noundef nonnull %0, ptr noundef nonnull @.str.14, i32 noundef %44) #4
  br label %45

45:                                               ; preds = %23, %24, %31, %36, %37, %42, %3
  ret void
}